; Function Attrs: mustprogress uwtable
define hidden void @_ZN4nori7toLowerERKNSt7__cxx1112basic_stringIcSt11char_traitsIcESaIcEEE(ptr dead_on_unwind noalias nonnull writable sret(%"class.std::__cxx11::basic_string") align 8 %0, ptr noundef nonnull align 8 dereferenceable(32) %1) local_unnamed_addr #3 personality ptr @__gxx_personality_v0 {
  tail call void @_ZNSt7__cxx1112basic_stringIcSt11char_traitsIcESaIcEEC1Ev(ptr noundef nonnull align 8 dereferenceable(32) %0) #26
  %3 = tail call noundef i64 @_ZNKSt7__cxx1112basic_stringIcSt11char_traitsIcESaIcEE4sizeEv(ptr noundef nonnull align 8 dereferenceable(32) %1) #26
  invoke void @_ZNSt7__cxx1112basic_stringIcSt11char_traitsIcESaIcEE6resizeEm(ptr noundef nonnull align 8 dereferenceable(32) %0, i64 noundef %3)
          to label %4 unwind label %14

4:                                                ; preds = %2
  %5 = tail call ptr @_ZNKSt7__cxx1112basic_stringIcSt11char_traitsIcESaIcEE5beginEv(ptr noundef nonnull align 8 dereferenceable(32) %1) #26
  %6 = tail call ptr @_ZNKSt7__cxx1112basic_stringIcSt11char_traitsIcESaIcEE3endEv(ptr noundef nonnull align 8 dereferenceable(32) %1) #26
  %7 = tail call ptr @_ZNSt7__cxx1112basic_stringIcSt11char_traitsIcESaIcEE5beginEv(ptr noundef nonnull align 8 dereferenceable(32) %0) #26
  %.not6.i = icmp eq ptr %5, %6
  br i1 %.not6.i, label %_ZSt9transformIN9__gnu_cxx17__normal_iteratorIPKcNSt7__cxx1112basic_stringIcSt11char_traitsIcESaIcEEEEENS1_IPcS9_EEPDoFiiEET0_T_SG_SF_T1_.exit, label %.lr.ph.i

.lr.ph.i:                                         ; preds = %4, %.lr.ph.i
  %.sroa.0.08.i = phi ptr [ %13, %.lr.ph.i ], [ %7, %4 ]
  %.sroa.03.07.i = phi ptr [ %12, %.lr.ph.i ], [ %5, %4 ]
  %8 = load i8, ptr %.sroa.03.07.i, align 1
  %9 = sext i8 %8 to i32
  %10 = tail call noundef i32 @tolower(i32 noundef %9) #26
  %11 = trunc i32 %10 to i8
  store i8 %11, ptr %.sroa.0.08.i, align 1
  %12 = getelementptr inbounds i8, ptr %.sroa.03.07.i, i64 1
  %13 = getelementptr inbounds i8, ptr %.sroa.0.08.i, i64 1
  %.not.i = icmp eq ptr %12, %6
  br i1 %.not.i, label %_ZSt9transformIN9__gnu_cxx17__normal_iteratorIPKcNSt7__cxx1112basic_stringIcSt11char_traitsIcESaIcEEEEENS1_IPcS9_EEPDoFiiEET0_T_SG_SF_T1_.exit, label %.lr.ph.i, !llvm.loop !8

_ZSt9transformIN9__gnu_cxx17__normal_iteratorIPKcNSt7__cxx1112basic_stringIcSt11char_traitsIcESaIcEEEEENS1_IPcS9_EEPDoFiiEET0_T_SG_SF_T1_.exit: ; preds = %.lr.ph.i, %4
  ret void

14:                                               ; preds = %2
  %15 = landingpad { ptr, i32 }
          cleanup
  tail call void @_ZNSt7__cxx1112basic_stringIcSt11char_traitsIcESaIcEED1Ev(ptr noundef nonnull align 8 dereferenceable(32) %0) #26
  resume { ptr, i32 } %15
}